target datalayout = "e-m:e-p270:32:32-p271:32:32-p272:64:64-i64:64-i128:128-f80:128-n8:16:32:64-S128"
target triple = "x86_64-pc-linux-gnu"

%struct.ObjectAddress = type { i32, i32, i32 }
%struct.RelationData = type { %struct.RelFileLocator, ptr, i32, i32, i8, i8, i8, i8, i8, i32, i32, i32, i32, ptr, ptr, i32, %struct.LockInfoData, ptr, ptr, ptr, ptr, ptr, i8, ptr, ptr, ptr, ptr, ptr, ptr, i32, ptr, i8, ptr, ptr, i32, i8, i32, ptr, i8, ptr, ptr, ptr, ptr, ptr, ptr, ptr, i32, ptr, ptr, ptr, ptr, ptr, ptr, ptr, ptr, ptr, ptr, ptr, ptr, ptr, ptr, ptr, ptr, ptr, ptr, ptr, i32, i8, ptr }
%struct.RelFileLocator = type { i32, i32, i32 }
%struct.LockInfoData = type { %struct.LockRelId }
%struct.LockRelId = type { i32, i32 }
%struct.FormData_pg_class = type { i32, %struct.nameData, i32, i32, i32, i32, i32, i32, i32, i32, float, i32, i32, i8, i8, i8, i8, i16, i16, i8, i8, i8, i8, i8, i8, i8, i8, i32, i32, i32 }
%struct.nameData = type { [64 x i8] }
%struct.ForEachState = type { ptr, i32 }
%struct.List = type { i32, i32, i32, ptr, [0 x %union.ListCell] }
%union.ListCell = type { ptr }
%struct.PublicationRelInfo = type { ptr, ptr, ptr }

@.str.1 = private unnamed_addr constant [18 x i8] c"publicationcmds.c\00", align 1
@.str.47 = private unnamed_addr constant [64 x i8] c"column list must not be specified in ALTER PUBLICATION ... DROP\00", align 1
@__func__.PublicationDropTables = private unnamed_addr constant [22 x i8] c"PublicationDropTables\00", align 1
@.str.48 = private unnamed_addr constant [45 x i8] c"relation \22%s\22 is not part of the publication\00", align 1
@.str.49 = private unnamed_addr constant [67 x i8] c"cannot use a WHERE clause when removing a table from a publication\00", align 1

; Function Attrs: inlinehint nounwind uwtable
define internal i64 @ObjectIdGetDatum(i32 noundef %0) #3 {
  %2 = alloca i32, align 4
  store i32 %0, ptr %2, align 4
  %3 = load i32, ptr %2, align 4
  %4 = zext i32 %3 to i64
  ret i64 %4
}

; Function Attrs: nounwind uwtable
define internal void @PublicationDropTables(i32 noundef %0, ptr noundef %1, i1 noundef zeroext %2) #0 {
  %4 = alloca i32, align 4
  %5 = alloca ptr, align 8
  %6 = alloca i8, align 1
  %7 = alloca %struct.ObjectAddress, align 4
  %8 = alloca ptr, align 8
  %9 = alloca i32, align 4
  %10 = alloca %struct.ForEachState, align 8
  %11 = alloca i32, align 4
  %12 = alloca ptr, align 8
  %13 = alloca ptr, align 8
  %14 = alloca i32, align 4
  store i32 %0, ptr %4, align 4
  store ptr %1, ptr %5, align 8
  %15 = zext i1 %2 to i8
  store i8 %15, ptr %6, align 1
  call void @llvm.lifetime.start.p0(i64 12, ptr %7) #10
  call void @llvm.lifetime.start.p0(i64 8, ptr %8) #10
  call void @llvm.lifetime.start.p0(i64 4, ptr %9) #10
  call void @llvm.lifetime.start.p0(i64 16, ptr %10) #10
  %16 = getelementptr inbounds nuw %struct.ForEachState, ptr %10, i32 0, i32 0
  %17 = load ptr, ptr %5, align 8
  store ptr %17, ptr %16, align 8
  %18 = getelementptr inbounds nuw %struct.ForEachState, ptr %10, i32 0, i32 1
  store i32 0, ptr %18, align 8
  %19 = getelementptr i8, ptr %10, i64 12
  call void @llvm.memset.p0.i64(ptr align 4 %19, i8 0, i64 4, i1 false)
  br label %20

20:                                               ; preds = %129, %3
  %21 = getelementptr inbounds nuw %struct.ForEachState, ptr %10, i32 0, i32 0
  %22 = load ptr, ptr %21, align 8
  %23 = icmp ne ptr %22, null
  br i1 %23, label %24, label %41

24:                                               ; preds = %20
  %25 = getelementptr inbounds nuw %struct.ForEachState, ptr %10, i32 0, i32 1
  %26 = load i32, ptr %25, align 8
  %27 = getelementptr inbounds nuw %struct.ForEachState, ptr %10, i32 0, i32 0
  %28 = load ptr, ptr %27, align 8
  %29 = getelementptr inbounds nuw %struct.List, ptr %28, i32 0, i32 1
  %30 = load i32, ptr %29, align 4
  %31 = icmp slt i32 %26, %30
  br i1 %31, label %32, label %41

32:                                               ; preds = %24
  %33 = getelementptr inbounds nuw %struct.ForEachState, ptr %10, i32 0, i32 0
  %34 = load ptr, ptr %33, align 8
  %35 = getelementptr inbounds nuw %struct.List, ptr %34, i32 0, i32 3
  %36 = load ptr, ptr %35, align 8
  %37 = getelementptr inbounds nuw %struct.ForEachState, ptr %10, i32 0, i32 1
  %38 = load i32, ptr %37, align 8
  %39 = sext i32 %38 to i64
  %40 = getelementptr inbounds %union.ListCell, ptr %36, i64 %39
  store ptr %40, ptr %8, align 8
  br label %42

41:                                               ; preds = %24, %20
  store ptr null, ptr %8, align 8
  br label %42

42:                                               ; preds = %41, %32
  %43 = phi i32 [ 1, %32 ], [ 0, %41 ]
  %44 = icmp ne i32 %43, 0
  br i1 %44, label %46, label %45

45:                                               ; preds = %42
  store i32 2, ptr %11, align 4
  call void @llvm.lifetime.end.p0(i64 16, ptr %10) #10
  br label %133

46:                                               ; preds = %42
  call void @llvm.lifetime.start.p0(i64 8, ptr %12) #10
  %47 = load ptr, ptr %8, align 8
  %48 = load ptr, ptr %47, align 8
  store ptr %48, ptr %12, align 8
  call void @llvm.lifetime.start.p0(i64 8, ptr %13) #10
  %49 = load ptr, ptr %12, align 8
  %50 = getelementptr inbounds nuw %struct.PublicationRelInfo, ptr %49, i32 0, i32 0
  %51 = load ptr, ptr %50, align 8
  store ptr %51, ptr %13, align 8
  call void @llvm.lifetime.start.p0(i64 4, ptr %14) #10
  %52 = load ptr, ptr %13, align 8
  %53 = getelementptr inbounds nuw %struct.RelationData, ptr %52, i32 0, i32 15
  %54 = load i32, ptr %53, align 8
  store i32 %54, ptr %14, align 4
  %55 = load ptr, ptr %12, align 8
  %56 = getelementptr inbounds nuw %struct.PublicationRelInfo, ptr %55, i32 0, i32 2
  %57 = load ptr, ptr %56, align 8
  %58 = icmp ne ptr %57, null
  br i1 %58, label %59, label %71

59:                                               ; preds = %46
  br label %60

60:                                               ; preds = %59
  br i1 true, label %61, label %63

61:                                               ; preds = %60
  %62 = call zeroext i1 @errstart_cold(i32 noundef 21, ptr noundef null) #11
  br i1 %62, label %65, label %68

63:                                               ; preds = %60
  %64 = call zeroext i1 @errstart(i32 noundef 21, ptr noundef null)
  br i1 %64, label %65, label %68

65:                                               ; preds = %63, %61
  %66 = call i32 @errcode(i32 noundef 16801924)
  %67 = call i32 (ptr, ...) @errmsg(ptr noundef @.str.47)
  call void @errfinish(ptr noundef @.str.1, i32 noundef 1864, ptr noundef @__func__.PublicationDropTables)
  br label %68

68:                                               ; preds = %65, %63, %61
  unreachable

69:                                               ; No predecessors!
  br label %70

70:                                               ; preds = %69
  br label %71

71:                                               ; preds = %70, %46
  %72 = load i32, ptr %14, align 4
  %73 = call i64 @ObjectIdGetDatum(i32 noundef %72)
  %74 = load i32, ptr %4, align 4
  %75 = call i64 @ObjectIdGetDatum(i32 noundef %74)
  %76 = call i32 @GetSysCacheOid(i32 noundef 53, i16 noundef signext 1, i64 noundef %73, i64 noundef %75, i64 noundef 0, i64 noundef 0)
  store i32 %76, ptr %9, align 4
  %77 = load i32, ptr %9, align 4
  %78 = icmp ne i32 %77, 0
  br i1 %78, label %101, label %79

79:                                               ; preds = %71
  %80 = load i8, ptr %6, align 1, !range !4, !noundef !5
  %81 = trunc i8 %80 to i1
  br i1 %81, label %82, label %83

82:                                               ; preds = %79
  store i32 4, ptr %11, align 4
  br label %126

83:                                               ; preds = %79
  br label %84

84:                                               ; preds = %83
  br i1 true, label %85, label %87

85:                                               ; preds = %84
  %86 = call zeroext i1 @errstart_cold(i32 noundef 21, ptr noundef null) #11
  br i1 %86, label %89, label %98

87:                                               ; preds = %84
  %88 = call zeroext i1 @errstart(i32 noundef 21, ptr noundef null)
  br i1 %88, label %89, label %98

89:                                               ; preds = %87, %85
  %90 = call i32 @errcode(i32 noundef 67137668)
  %91 = load ptr, ptr %13, align 8
  %92 = getelementptr inbounds nuw %struct.RelationData, ptr %91, i32 0, i32 13
  %93 = load ptr, ptr %92, align 8
  %94 = getelementptr inbounds nuw %struct.FormData_pg_class, ptr %93, i32 0, i32 1
  %95 = getelementptr inbounds nuw %struct.nameData, ptr %94, i32 0, i32 0
  %96 = getelementptr inbounds [64 x i8], ptr %95, i64 0, i64 0
  %97 = call i32 (ptr, ...) @errmsg(ptr noundef @.str.48, ptr noundef %96)
  call void @errfinish(ptr noundef @.str.1, i32 noundef 1877, ptr noundef @__func__.PublicationDropTables)
  br label %98

98:                                               ; preds = %89, %87, %85
  unreachable

99:                                               ; No predecessors!
  br label %100

100:                                              ; preds = %99
  br label %101

101:                                              ; preds = %100, %71
  %102 = load ptr, ptr %12, align 8
  %103 = getelementptr inbounds nuw %struct.PublicationRelInfo, ptr %102, i32 0, i32 1
  %104 = load ptr, ptr %103, align 8
  %105 = icmp ne ptr %104, null
  br i1 %105, label %106, label %118

106:                                              ; preds = %101
  br label %107

107:                                              ; preds = %106
  br i1 true, label %108, label %110

108:                                              ; preds = %107
  %109 = call zeroext i1 @errstart_cold(i32 noundef 21, ptr noundef null) #11
  br i1 %109, label %112, label %115

110:                                              ; preds = %107
  %111 = call zeroext i1 @errstart(i32 noundef 21, ptr noundef null)
  br i1 %111, label %112, label %115

112:                                              ; preds = %110, %108
  %113 = call i32 @errcode(i32 noundef 16801924)
  %114 = call i32 (ptr, ...) @errmsg(ptr noundef @.str.49)
  call void @errfinish(ptr noundef @.str.1, i32 noundef 1883, ptr noundef @__func__.PublicationDropTables)
  br label %115

115:                                              ; preds = %112, %110, %108
  unreachable

116:                                              ; No predecessors!
  br label %117

117:                                              ; preds = %116
  br label %118

118:                                              ; preds = %117, %101
  br label %119

119:                                              ; preds = %118
  %120 = getelementptr inbounds nuw %struct.ObjectAddress, ptr %7, i32 0, i32 0
  store i32 6106, ptr %120, align 4
  %121 = load i32, ptr %9, align 4
  %122 = getelementptr inbounds nuw %struct.ObjectAddress, ptr %7, i32 0, i32 1
  store i32 %121, ptr %122, align 4
  %123 = getelementptr inbounds nuw %struct.ObjectAddress, ptr %7, i32 0, i32 2
  store i32 0, ptr %123, align 4
  br label %124

124:                                              ; preds = %119
  br label %125

125:                                              ; preds = %124
  call void @performDeletion(ptr noundef %7, i32 noundef 1, i32 noundef 0)
  store i32 0, ptr %11, align 4
  br label %126

126:                                              ; preds = %125, %82
  call void @llvm.lifetime.end.p0(i64 4, ptr %14) #10
  call void @llvm.lifetime.end.p0(i64 8, ptr %13) #10
  call void @llvm.lifetime.end.p0(i64 8, ptr %12) #10
  %127 = load i32, ptr %11, align 4
  switch i32 %127, label %134 [
    i32 0, label %128
    i32 4, label %129
  ]

128:                                              ; preds = %126
  br label %129

129:                                              ; preds = %128, %126
  %130 = getelementptr inbounds nuw %struct.ForEachState, ptr %10, i32 0, i32 1
  %131 = load i32, ptr %130, align 8
  %132 = add i32 %131, 1
  store i32 %132, ptr %130, align 8
  br label %20, !llvm.loop !26

133:                                              ; preds = %45
  call void @llvm.lifetime.end.p0(i64 4, ptr %9) #10
  call void @llvm.lifetime.end.p0(i64 8, ptr %8) #10
  call void @llvm.lifetime.end.p0(i64 12, ptr %7) #10
  ret void

134:                                              ; preds = %126
  unreachable
}