; Function Attrs: nounwind uwtable
define internal fastcc void @PublicationDropTables(i32 noundef %0, ptr noundef readonly captures(address_is_null) %1, i1 noundef zeroext %2) unnamed_addr #0 {
  %4 = alloca %struct.ObjectAddress, align 4
  call void @llvm.lifetime.start.p0(i64 12, ptr nonnull %4) #8
  %.not = icmp eq ptr %1, null
  br i1 %.not, label %._crit_edge, label %.lr.ph

.lr.ph:                                           ; preds = %3
  %5 = getelementptr inbounds nuw i8, ptr %1, i64 4
  %6 = getelementptr inbounds nuw i8, ptr %1, i64 16
  %7 = zext i32 %0 to i64
  %8 = getelementptr inbounds nuw i8, ptr %4, i64 4
  %9 = getelementptr inbounds nuw i8, ptr %4, i64 8
  %10 = load i32, ptr %5, align 4
  %11 = icmp sgt i32 %10, 0
  br i1 %2, label %.lr.ph.split.us.split, label %.lr.ph.split.split

.lr.ph.split.us.split:                            ; preds = %.lr.ph
  br i1 %11, label %.lr.ph41, label %._crit_edge

.lr.ph41:                                         ; preds = %.lr.ph.split.us.split, %27
  %indvars.iv48 = phi i64 [ %indvars.iv.next49, %27 ], [ 0, %.lr.ph.split.us.split ]
  %12 = load ptr, ptr %6, align 8
  %13 = getelementptr inbounds nuw %union.ListCell, ptr %12, i64 %indvars.iv48
  %14 = load ptr, ptr %13, align 8
  %15 = getelementptr inbounds nuw i8, ptr %14, i64 16
  %16 = load ptr, ptr %15, align 8
  %.not18.us = icmp eq ptr %16, null
  br i1 %.not18.us, label %17, label %.split.us

17:                                               ; preds = %.lr.ph41
  %18 = load ptr, ptr %14, align 8
  %19 = getelementptr inbounds nuw i8, ptr %18, i64 72
  %20 = load i32, ptr %19, align 8
  %21 = zext i32 %20 to i64
  %22 = call i32 @GetSysCacheOid(i32 noundef 53, i16 noundef signext 1, i64 noundef %21, i64 noundef %7, i64 noundef 0, i64 noundef 0) #8
  %.not19.us = icmp eq i32 %22, 0
  br i1 %.not19.us, label %27, label %23

23:                                               ; preds = %17
  %24 = getelementptr inbounds nuw i8, ptr %14, i64 8
  %25 = load ptr, ptr %24, align 8
  %.not20.us = icmp eq ptr %25, null
  br i1 %.not20.us, label %26, label %.split28.us

26:                                               ; preds = %23
  store i32 6106, ptr %4, align 4
  store i32 %22, ptr %8, align 4
  store i32 0, ptr %9, align 4
  call void @performDeletion(ptr noundef nonnull %4, i32 noundef 1, i32 noundef 0) #8
  br label %27

27:                                               ; preds = %17, %26
  %indvars.iv.next49 = add nuw nsw i64 %indvars.iv48, 1
  %28 = load i32, ptr %5, align 4
  %29 = sext i32 %28 to i64
  %30 = icmp slt i64 %indvars.iv.next49, %29
  br i1 %30, label %.lr.ph41, label %._crit_edge

.lr.ph.split.split:                               ; preds = %.lr.ph
  br i1 %11, label %.lr.ph39, label %._crit_edge

._crit_edge:                                      ; preds = %57, %27, %.lr.ph.split.us.split, %.lr.ph.split.split, %3
  call void @llvm.lifetime.end.p0(i64 12, ptr nonnull %4) #8
  ret void

.lr.ph39:                                         ; preds = %.lr.ph.split.split, %57
  %indvars.iv = phi i64 [ %indvars.iv.next, %57 ], [ 0, %.lr.ph.split.split ]
  %31 = load ptr, ptr %6, align 8
  %32 = getelementptr inbounds nuw %union.ListCell, ptr %31, i64 %indvars.iv
  %33 = load ptr, ptr %32, align 8
  %34 = getelementptr inbounds nuw i8, ptr %33, i64 16
  %35 = load ptr, ptr %34, align 8
  %.not18 = icmp eq ptr %35, null
  br i1 %.not18, label %39, label %.split.us

.split.us:                                        ; preds = %.lr.ph39, %.lr.ph41
  %36 = call zeroext i1 @errstart_cold(i32 noundef 21, ptr noundef null) #9
  call void @llvm.assume(i1 %36)
  %37 = call i32 @errcode(i32 noundef 16801924) #8
  %38 = call i32 (ptr, ...) @errmsg(ptr noundef nonnull @.str.47) #8
  call void @errfinish(ptr noundef nonnull @.str.1, i32 noundef 1864, ptr noundef nonnull @__func__.PublicationDropTables) #8
  unreachable

39:                                               ; preds = %.lr.ph39
  %40 = load ptr, ptr %33, align 8
  %41 = getelementptr inbounds nuw i8, ptr %40, i64 72
  %42 = load i32, ptr %41, align 8
  %43 = zext i32 %42 to i64
  %44 = call i32 @GetSysCacheOid(i32 noundef 53, i16 noundef signext 1, i64 noundef %43, i64 noundef %7, i64 noundef 0, i64 noundef 0) #8
  %.not19 = icmp eq i32 %44, 0
  br i1 %.not19, label %.split37.us, label %51

.split37.us:                                      ; preds = %39
  %45 = call zeroext i1 @errstart_cold(i32 noundef 21, ptr noundef null) #9
  call void @llvm.assume(i1 %45)
  %46 = call i32 @errcode(i32 noundef 67137668) #8
  %47 = getelementptr inbounds nuw i8, ptr %40, i64 56
  %48 = load ptr, ptr %47, align 8
  %49 = getelementptr inbounds nuw i8, ptr %48, i64 4
  %50 = call i32 (ptr, ...) @errmsg(ptr noundef nonnull @.str.48, ptr noundef nonnull %49) #8
  call void @errfinish(ptr noundef nonnull @.str.1, i32 noundef 1877, ptr noundef nonnull @__func__.PublicationDropTables) #8
  unreachable

51:                                               ; preds = %39
  %52 = getelementptr inbounds nuw i8, ptr %33, i64 8
  %53 = load ptr, ptr %52, align 8
  %.not20 = icmp eq ptr %53, null
  br i1 %.not20, label %57, label %.split28.us

.split28.us:                                      ; preds = %51, %23
  %54 = call zeroext i1 @errstart_cold(i32 noundef 21, ptr noundef null) #9
  call void @llvm.assume(i1 %54)
  %55 = call i32 @errcode(i32 noundef 16801924) #8
  %56 = call i32 (ptr, ...) @errmsg(ptr noundef nonnull @.str.49) #8
  call void @errfinish(ptr noundef nonnull @.str.1, i32 noundef 1883, ptr noundef nonnull @__func__.PublicationDropTables) #8
  unreachable

57:                                               ; preds = %51
  store i32 6106, ptr %4, align 4
  store i32 %44, ptr %8, align 4
  store i32 0, ptr %9, align 4
  call void @performDeletion(ptr noundef nonnull %4, i32 noundef 1, i32 noundef 0) #8
  %indvars.iv.next = add nuw nsw i64 %indvars.iv, 1
  %58 = load i32, ptr %5, align 4
  %59 = sext i32 %58 to i64
  %60 = icmp slt i64 %indvars.iv.next, %59
  br i1 %60, label %.lr.ph39, label %._crit_edge
}